target datalayout = "e-m:e-p270:32:32-p271:32:32-p272:64:64-i64:64-i128:128-f80:128-n8:16:32:64-S128"
target triple = "x86_64-pc-linux-gnu"

%class.G1CMMarkStack = type { %"class.G1CMMarkStack::ChunkAllocator", [128 x i8], ptr, [120 x i8], ptr, i64, [112 x i8] }
%"class.G1CMMarkStack::ChunkAllocator" = type { i64, i64, i64, i64, i8, ptr, [128 x i8], i64, [120 x i8] }

@_ZN13G1CMMarkStack14ChunkAllocatorC1Ev = hidden unnamed_addr alias void (ptr), ptr @_ZN13G1CMMarkStack14ChunkAllocatorC2Ev

; Function Attrs: mustprogress nounwind uwtable
define linkonce_odr hidden void @_ZN13G1CMMarkStack14ChunkAllocator5resetEv(ptr noundef nonnull align 8 dereferenceable(304) %0) #1 comdat align 2 {
  %2 = alloca ptr, align 8
  store ptr %0, ptr %2, align 8
  %3 = load ptr, ptr %2, align 8
  %4 = getelementptr inbounds %"class.G1CMMarkStack::ChunkAllocator", ptr %3, i32 0, i32 7
  store volatile i64 0, ptr %4, align 8
  %5 = getelementptr inbounds %"class.G1CMMarkStack::ChunkAllocator", ptr %3, i32 0, i32 4
  store i8 0, ptr %5, align 8
  ret void
}

; Function Attrs: mustprogress nounwind uwtable
define hidden void @_ZN13G1CMMarkStack9set_emptyEv(ptr noundef nonnull align 8 dereferenceable(688) %0) #1 align 2 {
  %2 = alloca ptr, align 8
  store ptr %0, ptr %2, align 8
  %3 = load ptr, ptr %2, align 8
  %4 = getelementptr inbounds %class.G1CMMarkStack, ptr %3, i32 0, i32 5
  store volatile i64 0, ptr %4, align 8
  %5 = getelementptr inbounds %class.G1CMMarkStack, ptr %3, i32 0, i32 4
  store volatile ptr null, ptr %5, align 8
  %6 = getelementptr inbounds %class.G1CMMarkStack, ptr %3, i32 0, i32 2
  store volatile ptr null, ptr %6, align 8
  %7 = getelementptr inbounds %class.G1CMMarkStack, ptr %3, i32 0, i32 0
  call void @_ZN13G1CMMarkStack14ChunkAllocator5resetEv(ptr noundef nonnull align 8 dereferenceable(304) %7)
  ret void
}

; Function Attrs: mustprogress nounwind uwtable
define hidden void @_ZN13G1CMMarkStackC2Ev(ptr noundef nonnull align 8 dereferenceable(688) %0) unnamed_addr #1 align 2 {
  %2 = alloca ptr, align 8
  store ptr %0, ptr %2, align 8
  %3 = load ptr, ptr %2, align 8
  %4 = getelementptr inbounds %class.G1CMMarkStack, ptr %3, i32 0, i32 0
  call void @_ZN13G1CMMarkStack14ChunkAllocatorC1Ev(ptr noundef nonnull align 8 dereferenceable(304) %4)
  call void @_ZN13G1CMMarkStack9set_emptyEv(ptr noundef nonnull align 8 dereferenceable(688) %3)
  ret void
}