; Function Attrs: mustprogress nofree norecurse nounwind memory(argmem: readwrite, inaccessiblemem: readwrite) uwtable
define hidden void @_ZN13G1CMMarkStackC2Ev(ptr noundef nonnull align 8 dereferenceable(688) %0) unnamed_addr #3 align 2 {
  %2 = getelementptr inbounds i8, ptr %0, i64 40
  store ptr null, ptr %2, align 8
  %3 = getelementptr inbounds i8, ptr %0, i64 176
  tail call void @llvm.memset.p0.i64(ptr noundef nonnull align 8 dereferenceable(33) %0, i8 0, i64 32, i1 false)
  store volatile i64 0, ptr %3, align 8
  %4 = getelementptr inbounds i8, ptr %0, i64 568
  store volatile i64 0, ptr %4, align 8
  %5 = getelementptr inbounds i8, ptr %0, i64 560
  store volatile ptr null, ptr %5, align 8
  %6 = getelementptr inbounds i8, ptr %0, i64 432
  store volatile ptr null, ptr %6, align 8
  store volatile i64 0, ptr %3, align 8
  %7 = getelementptr inbounds i8, ptr %0, i64 32
  store i8 0, ptr %7, align 8
  ret void
}